; Function Attrs: mustprogress nounwind uwtable
define hidden noundef ptr @_ZNK19OpenColorIO_v2_4dev18FormatMetadataImpl16getAttributeNameEi(ptr noundef nonnull align 8 dereferenceable(120) %this, i32 noundef %i) unnamed_addr #4 align 2 {
entry:
  %cmp = icmp sgt i32 %i, -1
  br i1 %cmp, label %land.lhs.true, label %return

land.lhs.true:                                    ; preds = %entry
  %vtable = load ptr, ptr %this, align 8
  %vfn = getelementptr inbounds i8, ptr %vtable, i64 32
  %0 = load ptr, ptr %vfn, align 8
  %call = tail call noundef i32 %0(ptr noundef nonnull align 8 dereferenceable(120) %this) #17
  %cmp2 = icmp sgt i32 %call, %i
  br i1 %cmp2, label %if.then, label %return

if.then:                                          ; preds = %land.lhs.true
  %m_attributes = getelementptr inbounds i8, ptr %this, i64 72
  %conv = zext nneg i32 %i to i64
  %1 = load ptr, ptr %m_attributes, align 8
  %add.ptr.i = getelementptr inbounds %"struct.std::pair", ptr %1, i64 %conv
  %call4 = tail call noundef ptr @_ZNKSt7__cxx1112basic_stringIcSt11char_traitsIcESaIcEE5c_strEv(ptr noundef nonnull align 8 dereferenceable(32) %add.ptr.i) #17
  br label %return

return:                                           ; preds = %entry, %land.lhs.true, %if.then
  %retval.0 = phi ptr [ %call4, %if.then ], [ @.str.12, %land.lhs.true ], [ @.str.12, %entry ]
  ret ptr %retval.0
}